target datalayout = "e-m:e-p270:32:32-p271:32:32-p272:64:64-i64:64-i128:128-f80:128-n8:16:32:64-S128"
target triple = "x86_64-pc-linux-gnu"

%struct.Mio_Cell2_t_ = type { ptr, ptr, i32, float, i64, i64, i32, [6 x i32], ptr }
%struct.Nf_Cfg_t_ = type { i32 }
%struct.Vec_Int_t_ = type { i32, i32, ptr }
%struct.Nf_Man_t_ = type { ptr, ptr, ptr, ptr, ptr, ptr, i32, ptr, %struct.Vec_Ptr_t_, %struct.Vec_Int_t_, %struct.Vec_Int_t_, %struct.Vec_Flt_t_, %struct.Vec_Int_t_, %struct.Vec_Flt_t_, %struct.Vec_Int_t_, %struct.Vec_Int_t_, i32, i32, i32, i32, i32, i64, float, i64, [6 x double], i32 }
%struct.Vec_Ptr_t_ = type { i32, i32, ptr }
%struct.Vec_Flt_t_ = type { i32, i32, ptr }
%struct.Jf_Par_t_ = type { i32, i32, i32, i32, i32, i32, i32, i32, i32, i32, i32, i32, i32, i32, i32, i32, i32, i32, i32, i32, i32, i32, i32, i32, i32, i32, i32, i32, i32, i32, i32, i32, i32, i32, i32, i32, i32, i32, i32, i32, i64, i64, i64, i64, i64, i64, i64, i64, i32, float, float, float, float, ptr, ptr }
%struct.Nf_Mat_t_ = type { i32, %struct.Nf_Cfg_t_, i32, float }

; Function Attrs: inlinehint nounwind uwtable
define internal void @Vec_IntWriteEntry(ptr noundef %0, i32 noundef %1, i32 noundef %2) #2 {
  %4 = alloca ptr, align 8
  %5 = alloca i32, align 4
  %6 = alloca i32, align 4
  store ptr %0, ptr %4, align 8, !tbaa !26
  store i32 %1, ptr %5, align 4, !tbaa !17
  store i32 %2, ptr %6, align 4, !tbaa !17
  %7 = load i32, ptr %6, align 4, !tbaa !17
  %8 = load ptr, ptr %4, align 8, !tbaa !26
  %9 = getelementptr inbounds nuw %struct.Vec_Int_t_, ptr %8, i32 0, i32 2
  %10 = load ptr, ptr %9, align 8, !tbaa !46
  %11 = load i32, ptr %5, align 4, !tbaa !17
  %12 = sext i32 %11 to i64
  %13 = getelementptr inbounds i32, ptr %10, i64 %12
  store i32 %7, ptr %13, align 4, !tbaa !17
  ret void
}

; Function Attrs: inlinehint nounwind uwtable
define internal ptr @Vec_PtrEntry(ptr noundef %0, i32 noundef %1) #2 {
  %3 = alloca ptr, align 8
  %4 = alloca i32, align 4
  store ptr %0, ptr %3, align 8, !tbaa !119
  store i32 %1, ptr %4, align 4, !tbaa !17
  %5 = load ptr, ptr %3, align 8, !tbaa !119
  %6 = getelementptr inbounds nuw %struct.Vec_Ptr_t_, ptr %5, i32 0, i32 2
  %7 = load ptr, ptr %6, align 8, !tbaa !121
  %8 = load i32, ptr %4, align 4, !tbaa !17
  %9 = sext i32 %8 to i64
  %10 = getelementptr inbounds ptr, ptr %7, i64 %9
  %11 = load ptr, ptr %10, align 8, !tbaa !135
  ret ptr %11
}

; Function Attrs: inlinehint nounwind uwtable
define internal i32 @Vec_IntEntry(ptr noundef %0, i32 noundef %1) #2 {
  %3 = alloca ptr, align 8
  %4 = alloca i32, align 4
  store ptr %0, ptr %3, align 8, !tbaa !26
  store i32 %1, ptr %4, align 4, !tbaa !17
  %5 = load ptr, ptr %3, align 8, !tbaa !26
  %6 = getelementptr inbounds nuw %struct.Vec_Int_t_, ptr %5, i32 0, i32 2
  %7 = load ptr, ptr %6, align 8, !tbaa !46
  %8 = load i32, ptr %4, align 4, !tbaa !17
  %9 = sext i32 %8 to i64
  %10 = getelementptr inbounds i32, ptr %7, i64 %9
  %11 = load i32, ptr %10, align 4, !tbaa !17
  ret i32 %11
}

; Function Attrs: inlinehint nounwind uwtable
define internal void @Nf_ObjSetRequired(ptr noundef %0, i32 noundef %1, i32 noundef %2, i32 noundef %3) #2 {
  %5 = alloca ptr, align 8
  %6 = alloca i32, align 4
  %7 = alloca i32, align 4
  %8 = alloca i32, align 4
  store ptr %0, ptr %5, align 8, !tbaa !61
  store i32 %1, ptr %6, align 4, !tbaa !17
  store i32 %2, ptr %7, align 4, !tbaa !17
  store i32 %3, ptr %8, align 4, !tbaa !17
  %9 = load ptr, ptr %5, align 8, !tbaa !61
  %10 = getelementptr inbounds nuw %struct.Nf_Man_t_, ptr %9, i32 0, i32 12
  %11 = load i32, ptr %6, align 4, !tbaa !17
  %12 = load i32, ptr %7, align 4, !tbaa !17
  %13 = call i32 @Abc_Var2Lit(i32 noundef %11, i32 noundef %12)
  %14 = load i32, ptr %8, align 4, !tbaa !17
  call void @Vec_IntWriteEntry(ptr noundef %10, i32 noundef %13, i32 noundef %14)
  ret void
}

; Function Attrs: inlinehint nounwind uwtable
define internal i32 @Nf_ObjRequired(ptr noundef %0, i32 noundef %1, i32 noundef %2) #2 {
  %4 = alloca ptr, align 8
  %5 = alloca i32, align 4
  %6 = alloca i32, align 4
  store ptr %0, ptr %4, align 8, !tbaa !61
  store i32 %1, ptr %5, align 4, !tbaa !17
  store i32 %2, ptr %6, align 4, !tbaa !17
  %7 = load ptr, ptr %4, align 8, !tbaa !61
  %8 = getelementptr inbounds nuw %struct.Nf_Man_t_, ptr %7, i32 0, i32 12
  %9 = load i32, ptr %5, align 4, !tbaa !17
  %10 = load i32, ptr %6, align 4, !tbaa !17
  %11 = call i32 @Abc_Var2Lit(i32 noundef %9, i32 noundef %10)
  %12 = call i32 @Vec_IntEntry(ptr noundef %8, i32 noundef %11)
  ret i32 %12
}

; Function Attrs: inlinehint nounwind uwtable
define internal ptr @Vec_IntEntryP(ptr noundef %0, i32 noundef %1) #2 {
  %3 = alloca ptr, align 8
  %4 = alloca i32, align 4
  store ptr %0, ptr %3, align 8, !tbaa !26
  store i32 %1, ptr %4, align 4, !tbaa !17
  %5 = load ptr, ptr %3, align 8, !tbaa !26
  %6 = getelementptr inbounds nuw %struct.Vec_Int_t_, ptr %5, i32 0, i32 2
  %7 = load ptr, ptr %6, align 8, !tbaa !46
  %8 = load i32, ptr %4, align 4, !tbaa !17
  %9 = sext i32 %8 to i64
  %10 = getelementptr inbounds i32, ptr %7, i64 %9
  ret ptr %10
}

; Function Attrs: inlinehint nounwind uwtable
define internal i32 @Abc_Var2Lit(i32 noundef %0, i32 noundef %1) #2 {
  %3 = alloca i32, align 4
  %4 = alloca i32, align 4
  store i32 %0, ptr %3, align 4, !tbaa !17
  store i32 %1, ptr %4, align 4, !tbaa !17
  %5 = load i32, ptr %3, align 4, !tbaa !17
  %6 = load i32, ptr %3, align 4, !tbaa !17
  %7 = add nsw i32 %5, %6
  %8 = load i32, ptr %4, align 4, !tbaa !17
  %9 = add nsw i32 %7, %8
  ret i32 %9
}

; Function Attrs: inlinehint nounwind uwtable
define internal ptr @Nf_ManCutSet(ptr noundef %0, i32 noundef %1) #2 {
  %3 = alloca ptr, align 8
  %4 = alloca i32, align 4
  store ptr %0, ptr %3, align 8, !tbaa !61
  store i32 %1, ptr %4, align 4, !tbaa !17
  %5 = load ptr, ptr %3, align 8, !tbaa !61
  %6 = getelementptr inbounds nuw %struct.Nf_Man_t_, ptr %5, i32 0, i32 8
  %7 = load i32, ptr %4, align 4, !tbaa !17
  %8 = ashr i32 %7, 16
  %9 = call ptr @Vec_PtrEntry(ptr noundef %6, i32 noundef %8)
  %10 = load i32, ptr %4, align 4, !tbaa !17
  %11 = and i32 %10, 65535
  %12 = sext i32 %11 to i64
  %13 = getelementptr inbounds i32, ptr %9, i64 %12
  ret ptr %13
}

; Function Attrs: inlinehint nounwind uwtable
define internal i32 @Nf_ObjCutSetId(ptr noundef %0, i32 noundef %1) #2 {
  %3 = alloca ptr, align 8
  %4 = alloca i32, align 4
  store ptr %0, ptr %3, align 8, !tbaa !61
  store i32 %1, ptr %4, align 4, !tbaa !17
  %5 = load ptr, ptr %3, align 8, !tbaa !61
  %6 = getelementptr inbounds nuw %struct.Nf_Man_t_, ptr %5, i32 0, i32 9
  %7 = load i32, ptr %4, align 4, !tbaa !17
  %8 = call i32 @Vec_IntEntry(ptr noundef %6, i32 noundef %7)
  ret i32 %8
}

; Function Attrs: inlinehint nounwind uwtable
define internal void @Nf_ObjUpdateRequired(ptr noundef %0, i32 noundef %1, i32 noundef %2, i32 noundef %3) #2 {
  %5 = alloca ptr, align 8
  %6 = alloca i32, align 4
  %7 = alloca i32, align 4
  %8 = alloca i32, align 4
  store ptr %0, ptr %5, align 8, !tbaa !61
  store i32 %1, ptr %6, align 4, !tbaa !17
  store i32 %2, ptr %7, align 4, !tbaa !17
  store i32 %3, ptr %8, align 4, !tbaa !17
  %9 = load ptr, ptr %5, align 8, !tbaa !61
  %10 = load i32, ptr %6, align 4, !tbaa !17
  %11 = load i32, ptr %7, align 4, !tbaa !17
  %12 = call i32 @Nf_ObjRequired(ptr noundef %9, i32 noundef %10, i32 noundef %11)
  %13 = load i32, ptr %8, align 4, !tbaa !17
  %14 = icmp sgt i32 %12, %13
  br i1 %14, label %15, label %20

15:                                               ; preds = %4
  %16 = load ptr, ptr %5, align 8, !tbaa !61
  %17 = load i32, ptr %6, align 4, !tbaa !17
  %18 = load i32, ptr %7, align 4, !tbaa !17
  %19 = load i32, ptr %8, align 4, !tbaa !17
  call void @Nf_ObjSetRequired(ptr noundef %16, i32 noundef %17, i32 noundef %18, i32 noundef %19)
  br label %20

20:                                               ; preds = %15, %4
  ret void
}

; Function Attrs: inlinehint nounwind uwtable
define internal i32 @Nf_ObjMapRefInc(ptr noundef %0, i32 noundef %1, i32 noundef %2) #2 {
  %4 = alloca ptr, align 8
  %5 = alloca i32, align 4
  %6 = alloca i32, align 4
  store ptr %0, ptr %4, align 8, !tbaa !61
  store i32 %1, ptr %5, align 4, !tbaa !17
  store i32 %2, ptr %6, align 4, !tbaa !17
  %7 = load ptr, ptr %4, align 8, !tbaa !61
  %8 = getelementptr inbounds nuw %struct.Nf_Man_t_, ptr %7, i32 0, i32 10
  %9 = load i32, ptr %5, align 4, !tbaa !17
  %10 = load i32, ptr %6, align 4, !tbaa !17
  %11 = call i32 @Abc_Var2Lit(i32 noundef %9, i32 noundef %10)
  %12 = call ptr @Vec_IntEntryP(ptr noundef %8, i32 noundef %11)
  %13 = load i32, ptr %12, align 4, !tbaa !17
  %14 = add nsw i32 %13, 1
  store i32 %14, ptr %12, align 4, !tbaa !17
  ret i32 %13
}

; Function Attrs: inlinehint nounwind uwtable
define internal i32 @Nf_CfgCompl(i32 %0, i32 noundef %1) #2 {
  %3 = alloca %struct.Nf_Cfg_t_, align 4
  %4 = alloca i32, align 4
  %5 = getelementptr inbounds nuw %struct.Nf_Cfg_t_, ptr %3, i32 0, i32 0
  store i32 %0, ptr %5, align 4
  store i32 %1, ptr %4, align 4, !tbaa !17
  %6 = load i32, ptr %3, align 4
  %7 = lshr i32 %6, 1
  %8 = and i32 %7, 127
  %9 = load i32, ptr %4, align 4, !tbaa !17
  %10 = ashr i32 %8, %9
  %11 = and i32 %10, 1
  ret i32 %11
}

; Function Attrs: inlinehint nounwind uwtable
define internal i32 @Nf_CfgVar(i32 %0, i32 noundef %1) #2 {
  %3 = alloca %struct.Nf_Cfg_t_, align 4
  %4 = alloca i32, align 4
  %5 = getelementptr inbounds nuw %struct.Nf_Cfg_t_, ptr %3, i32 0, i32 0
  store i32 %0, ptr %5, align 4
  store i32 %1, ptr %4, align 4, !tbaa !17
  %6 = load i32, ptr %3, align 4
  %7 = lshr i32 %6, 8
  %8 = load i32, ptr %4, align 4, !tbaa !17
  %9 = shl i32 %8, 2
  %10 = ashr i32 %7, %9
  %11 = and i32 %10, 15
  ret i32 %11
}

; Function Attrs: inlinehint nounwind uwtable
define internal ptr @Nf_CutLeaves(ptr noundef %0) #2 {
  %2 = alloca ptr, align 8
  store ptr %0, ptr %2, align 8, !tbaa !8
  %3 = load ptr, ptr %2, align 8, !tbaa !8
  %4 = getelementptr inbounds i32, ptr %3, i64 1
  ret ptr %4
}

; Function Attrs: inlinehint nounwind uwtable
define internal i32 @Nf_CutSize(ptr noundef %0) #2 {
  %2 = alloca ptr, align 8
  store ptr %0, ptr %2, align 8, !tbaa !8
  %3 = load ptr, ptr %2, align 8, !tbaa !8
  %4 = getelementptr inbounds i32, ptr %3, i64 0
  %5 = load i32, ptr %4, align 4, !tbaa !17
  %6 = and i32 %5, 31
  ret i32 %6
}

; Function Attrs: inlinehint nounwind uwtable
define internal ptr @Nf_CutFromHandle(ptr noundef %0, i32 noundef %1) #2 {
  %3 = alloca ptr, align 8
  %4 = alloca i32, align 4
  store ptr %0, ptr %3, align 8, !tbaa !8
  store i32 %1, ptr %4, align 4, !tbaa !17
  %5 = load ptr, ptr %3, align 8, !tbaa !8
  %6 = load i32, ptr %4, align 4, !tbaa !17
  %7 = sext i32 %6 to i64
  %8 = getelementptr inbounds i32, ptr %5, i64 %7
  ret ptr %8
}

; Function Attrs: inlinehint nounwind uwtable
define internal ptr @Nf_ObjCutSet(ptr noundef %0, i32 noundef %1) #2 {
  %3 = alloca ptr, align 8
  %4 = alloca i32, align 4
  store ptr %0, ptr %3, align 8, !tbaa !61
  store i32 %1, ptr %4, align 4, !tbaa !17
  %5 = load ptr, ptr %3, align 8, !tbaa !61
  %6 = load ptr, ptr %3, align 8, !tbaa !61
  %7 = load i32, ptr %4, align 4, !tbaa !17
  %8 = call i32 @Nf_ObjCutSetId(ptr noundef %6, i32 noundef %7)
  %9 = call ptr @Nf_ManCutSet(ptr noundef %5, i32 noundef %8)
  ret ptr %9
}

; Function Attrs: inlinehint nounwind uwtable
define internal ptr @Nf_ManCell(ptr noundef %0, i32 noundef %1) #2 {
  %3 = alloca ptr, align 8
  %4 = alloca i32, align 4
  store ptr %0, ptr %3, align 8, !tbaa !61
  store i32 %1, ptr %4, align 4, !tbaa !17
  %5 = load ptr, ptr %3, align 8, !tbaa !61
  %6 = getelementptr inbounds nuw %struct.Nf_Man_t_, ptr %5, i32 0, i32 5
  %7 = load ptr, ptr %6, align 8, !tbaa !63
  %8 = load i32, ptr %4, align 4, !tbaa !17
  %9 = sext i32 %8 to i64
  %10 = getelementptr inbounds %struct.Mio_Cell2_t_, ptr %7, i64 %9
  ret ptr %10
}

; Function Attrs: nounwind uwtable
define void @Nf_ManSetMapRefsGate(ptr noundef %0, i32 noundef %1, i32 noundef %2, ptr noundef %3) #0 {
  %5 = alloca ptr, align 8
  %6 = alloca i32, align 4
  %7 = alloca i32, align 4
  %8 = alloca ptr, align 8
  %9 = alloca i32, align 4
  %10 = alloca i32, align 4
  %11 = alloca i32, align 4
  %12 = alloca ptr, align 8
  %13 = alloca ptr, align 8
  store ptr %0, ptr %5, align 8, !tbaa !61
  store i32 %1, ptr %6, align 4, !tbaa !17
  store i32 %2, ptr %7, align 4, !tbaa !17
  store ptr %3, ptr %8, align 8, !tbaa !193
  call void @llvm.lifetime.start.p0(i64 4, ptr %9) #13
  call void @llvm.lifetime.start.p0(i64 4, ptr %10) #13
  call void @llvm.lifetime.start.p0(i64 4, ptr %11) #13
  call void @llvm.lifetime.start.p0(i64 8, ptr %12) #13
  %14 = load ptr, ptr %5, align 8, !tbaa !61
  %15 = load ptr, ptr %8, align 8, !tbaa !193
  %16 = load i32, ptr %15, align 4
  %17 = and i32 %16, 1048575
  %18 = call ptr @Nf_ManCell(ptr noundef %14, i32 noundef %17)
  store ptr %18, ptr %12, align 8, !tbaa !3
  call void @llvm.lifetime.start.p0(i64 8, ptr %13) #13
  %19 = load ptr, ptr %5, align 8, !tbaa !61
  %20 = load i32, ptr %6, align 4, !tbaa !17
  %21 = call ptr @Nf_ObjCutSet(ptr noundef %19, i32 noundef %20)
  %22 = load ptr, ptr %8, align 8, !tbaa !193
  %23 = load i32, ptr %22, align 4
  %24 = lshr i32 %23, 20
  %25 = and i32 %24, 1023
  %26 = call ptr @Nf_CutFromHandle(ptr noundef %21, i32 noundef %25)
  store ptr %26, ptr %13, align 8, !tbaa !8
  store i32 0, ptr %9, align 4, !tbaa !17
  br label %27

27:                                               ; preds = %70, %4
  %28 = load i32, ptr %9, align 4, !tbaa !17
  %29 = load ptr, ptr %13, align 8, !tbaa !8
  %30 = call i32 @Nf_CutSize(ptr noundef %29)
  %31 = icmp slt i32 %28, %30
  br i1 %31, label %32, label %52

32:                                               ; preds = %27
  %33 = load ptr, ptr %13, align 8, !tbaa !8
  %34 = call ptr @Nf_CutLeaves(ptr noundef %33)
  %35 = load ptr, ptr %8, align 8, !tbaa !193
  %36 = getelementptr inbounds nuw %struct.Nf_Mat_t_, ptr %35, i32 0, i32 1
  %37 = load i32, ptr %9, align 4, !tbaa !17
  %38 = getelementptr inbounds nuw %struct.Nf_Cfg_t_, ptr %36, i32 0, i32 0
  %39 = load i32, ptr %38, align 4
  %40 = call i32 @Nf_CfgVar(i32 %39, i32 noundef %37)
  %41 = sext i32 %40 to i64
  %42 = getelementptr inbounds i32, ptr %34, i64 %41
  %43 = load i32, ptr %42, align 4, !tbaa !17
  store i32 %43, ptr %10, align 4, !tbaa !17
  %44 = icmp ne i32 %43, 0
  br i1 %44, label %45, label %52

45:                                               ; preds = %32
  %46 = load ptr, ptr %8, align 8, !tbaa !193
  %47 = getelementptr inbounds nuw %struct.Nf_Mat_t_, ptr %46, i32 0, i32 1
  %48 = load i32, ptr %9, align 4, !tbaa !17
  %49 = getelementptr inbounds nuw %struct.Nf_Cfg_t_, ptr %47, i32 0, i32 0
  %50 = load i32, ptr %49, align 4
  %51 = call i32 @Nf_CfgCompl(i32 %50, i32 noundef %48)
  store i32 %51, ptr %11, align 4, !tbaa !17
  br label %52

52:                                               ; preds = %45, %32, %27
  %53 = phi i1 [ false, %32 ], [ false, %27 ], [ true, %45 ]
  br i1 %53, label %54, label %73

54:                                               ; preds = %52
  %55 = load ptr, ptr %5, align 8, !tbaa !61
  %56 = load i32, ptr %10, align 4, !tbaa !17
  %57 = load i32, ptr %11, align 4, !tbaa !17
  %58 = call i32 @Nf_ObjMapRefInc(ptr noundef %55, i32 noundef %56, i32 noundef %57)
  %59 = load ptr, ptr %5, align 8, !tbaa !61
  %60 = load i32, ptr %10, align 4, !tbaa !17
  %61 = load i32, ptr %11, align 4, !tbaa !17
  %62 = load i32, ptr %7, align 4, !tbaa !17
  %63 = load ptr, ptr %12, align 8, !tbaa !3
  %64 = getelementptr inbounds nuw %struct.Mio_Cell2_t_, ptr %63, i32 0, i32 7
  %65 = load i32, ptr %9, align 4, !tbaa !17
  %66 = sext i32 %65 to i64
  %67 = getelementptr inbounds [6 x i32], ptr %64, i64 0, i64 %66
  %68 = load i32, ptr %67, align 4, !tbaa !17
  %69 = sub nsw i32 %62, %68
  call void @Nf_ObjUpdateRequired(ptr noundef %59, i32 noundef %60, i32 noundef %61, i32 noundef %69)
  br label %70

70:                                               ; preds = %54
  %71 = load i32, ptr %9, align 4, !tbaa !17
  %72 = add nsw i32 %71, 1
  store i32 %72, ptr %9, align 4, !tbaa !17
  br label %27, !llvm.loop !222

73:                                               ; preds = %52
  %74 = load ptr, ptr %12, align 8, !tbaa !3
  %75 = getelementptr inbounds nuw %struct.Mio_Cell2_t_, ptr %74, i32 0, i32 3
  %76 = load float, ptr %75, align 4, !tbaa !10
  %77 = load ptr, ptr %5, align 8, !tbaa !61
  %78 = getelementptr inbounds nuw %struct.Nf_Man_t_, ptr %77, i32 0, i32 2
  %79 = load ptr, ptr %78, align 8, !tbaa !103
  %80 = getelementptr inbounds nuw %struct.Jf_Par_t_, ptr %79, i32 0, i32 50
  %81 = load float, ptr %80, align 8, !tbaa !178
  %82 = fadd float %81, %76
  store float %82, ptr %80, align 8, !tbaa !178
  %83 = load ptr, ptr %13, align 8, !tbaa !8
  %84 = call i32 @Nf_CutSize(ptr noundef %83)
  %85 = sext i32 %84 to i64
  %86 = load ptr, ptr %5, align 8, !tbaa !61
  %87 = getelementptr inbounds nuw %struct.Nf_Man_t_, ptr %86, i32 0, i32 2
  %88 = load ptr, ptr %87, align 8, !tbaa !103
  %89 = getelementptr inbounds nuw %struct.Jf_Par_t_, ptr %88, i32 0, i32 42
  %90 = load i64, ptr %89, align 8, !tbaa !181
  %91 = add i64 %90, %85
  store i64 %91, ptr %89, align 8, !tbaa !181
  %92 = load ptr, ptr %5, align 8, !tbaa !61
  %93 = getelementptr inbounds nuw %struct.Nf_Man_t_, ptr %92, i32 0, i32 2
  %94 = load ptr, ptr %93, align 8, !tbaa !103
  %95 = getelementptr inbounds nuw %struct.Jf_Par_t_, ptr %94, i32 0, i32 41
  %96 = load i64, ptr %95, align 8, !tbaa !179
  %97 = add i64 %96, 1
  store i64 %97, ptr %95, align 8, !tbaa !179
  %98 = load ptr, ptr %8, align 8, !tbaa !193
  %99 = load i32, ptr %98, align 4
  %100 = and i32 %99, 2147483647
  %101 = or i32 %100, -2147483648
  store i32 %101, ptr %98, align 4
  call void @llvm.lifetime.end.p0(i64 8, ptr %13) #13
  call void @llvm.lifetime.end.p0(i64 8, ptr %12) #13
  call void @llvm.lifetime.end.p0(i64 4, ptr %11) #13
  call void @llvm.lifetime.end.p0(i64 4, ptr %10) #13
  call void @llvm.lifetime.end.p0(i64 4, ptr %9) #13
  ret void
}