; Function Attrs: nofree norecurse nosync nounwind memory(readwrite, inaccessiblemem: none) uwtable
define void @Nf_ManSetMapRefsGate(ptr noundef readonly captures(none) %0, i32 noundef %1, i32 noundef %2, ptr noundef captures(none) %3) local_unnamed_addr #11 {
  %5 = load i32, ptr %3, align 4
  %6 = and i32 %5, 1048575
  %7 = getelementptr i8, ptr %0, i64 40
  %.val31 = load ptr, ptr %7, align 8, !tbaa !62
  %8 = zext nneg i32 %6 to i64
  %9 = getelementptr inbounds nuw %struct.Mio_Cell2_t_, ptr %.val31, i64 %8
  %10 = getelementptr i8, ptr %0, i64 72
  %.val = load ptr, ptr %10, align 8, !tbaa !108
  %11 = getelementptr i8, ptr %0, i64 88
  %.val28 = load ptr, ptr %11, align 8, !tbaa !25
  %12 = sext i32 %1 to i64
  %13 = getelementptr inbounds i32, ptr %.val28, i64 %12
  %14 = load i32, ptr %13, align 4, !tbaa !13
  %15 = ashr i32 %14, 16
  %16 = sext i32 %15 to i64
  %17 = getelementptr inbounds ptr, ptr %.val, i64 %16
  %18 = load ptr, ptr %17, align 8, !tbaa !124
  %19 = and i32 %14, 65535
  %20 = zext nneg i32 %19 to i64
  %21 = getelementptr inbounds nuw i32, ptr %18, i64 %20
  %22 = lshr i32 %5, 20
  %23 = and i32 %22, 1023
  %24 = zext nneg i32 %23 to i64
  %25 = getelementptr inbounds nuw i32, ptr %21, i64 %24
  %26 = getelementptr inbounds nuw i8, ptr %25, i64 4
  %27 = getelementptr inbounds nuw i8, ptr %3, i64 4
  %.val3034 = load i32, ptr %25, align 4, !tbaa !13
  %28 = and i32 %.val3034, 31
  %.not38 = icmp eq i32 %28, 0
  br i1 %.not38, label %.critedge, label %.lr.ph

.lr.ph:                                           ; preds = %4
  %29 = getelementptr i8, ptr %0, i64 104
  %30 = getelementptr inbounds nuw i8, ptr %9, i64 44
  %31 = getelementptr i8, ptr %0, i64 136
  %32 = load i32, ptr %27, align 4
  %33 = lshr i32 %32, 8
  %34 = and i32 %33, 15
  %35 = zext nneg i32 %34 to i64
  %36 = getelementptr inbounds nuw i32, ptr %26, i64 %35
  %37 = load i32, ptr %36, align 4, !tbaa !13
  %.not40 = icmp eq i32 %37, 0
  br i1 %.not40, label %.critedge.loopexit, label %.lr.ph42.preheader

.lr.ph42.preheader:                               ; preds = %.lr.ph
  %.val33 = load ptr, ptr %29, align 8, !tbaa !25
  %.val32 = load ptr, ptr %31, align 8, !tbaa !25
  br label %.lr.ph42

38:                                               ; preds = %Nf_ObjUpdateRequired.exit
  %39 = load i32, ptr %27, align 4
  %40 = lshr i32 %39, 8
  %indvars.iv.tr = trunc i64 %indvars.iv.next to i32
  %41 = shl nuw nsw i32 %indvars.iv.tr, 2
  %42 = lshr i32 %40, %41
  %43 = and i32 %42, 15
  %44 = zext nneg i32 %43 to i64
  %45 = getelementptr inbounds nuw i32, ptr %26, i64 %44
  %46 = load i32, ptr %45, align 4, !tbaa !13
  %.not = icmp eq i32 %46, 0
  br i1 %.not, label %.critedge.loopexit, label %.lr.ph42, !llvm.loop !225

.lr.ph42:                                         ; preds = %.lr.ph42.preheader, %38
  %47 = phi i32 [ %46, %38 ], [ %37, %.lr.ph42.preheader ]
  %48 = phi i32 [ %39, %38 ], [ %32, %.lr.ph42.preheader ]
  %indvars.iv41 = phi i64 [ %indvars.iv.next, %38 ], [ 0, %.lr.ph42.preheader ]
  %49 = lshr i32 %48, 1
  %50 = and i32 %49, 127
  %51 = trunc nuw nsw i64 %indvars.iv41 to i32
  %52 = lshr i32 %50, %51
  %53 = and i32 %52, 1
  %54 = shl nsw i32 %47, 1
  %55 = or disjoint i32 %53, %54
  %56 = sext i32 %55 to i64
  %57 = getelementptr inbounds i32, ptr %.val33, i64 %56
  %58 = load i32, ptr %57, align 4, !tbaa !13
  %59 = add nsw i32 %58, 1
  store i32 %59, ptr %57, align 4, !tbaa !13
  %60 = getelementptr inbounds nuw [6 x i32], ptr %30, i64 0, i64 %indvars.iv41
  %61 = load i32, ptr %60, align 4, !tbaa !13
  %62 = sub nsw i32 %2, %61
  %63 = getelementptr inbounds i32, ptr %.val32, i64 %56
  %64 = load i32, ptr %63, align 4, !tbaa !13
  %65 = icmp sgt i32 %64, %62
  br i1 %65, label %66, label %Nf_ObjUpdateRequired.exit

66:                                               ; preds = %.lr.ph42
  store i32 %62, ptr %63, align 4, !tbaa !13
  br label %Nf_ObjUpdateRequired.exit

Nf_ObjUpdateRequired.exit:                        ; preds = %.lr.ph42, %66
  %indvars.iv.next = add nuw nsw i64 %indvars.iv41, 1
  %.val30 = load i32, ptr %25, align 4, !tbaa !13
  %67 = and i32 %.val30, 31
  %68 = zext nneg i32 %67 to i64
  %69 = icmp samesign ult i64 %indvars.iv.next, %68
  br i1 %69, label %38, label %.critedge.loopexit, !llvm.loop !225

.critedge.loopexit:                               ; preds = %Nf_ObjUpdateRequired.exit, %38, %.lr.ph
  %.lcssa.ph = phi i32 [ %28, %.lr.ph ], [ %67, %38 ], [ %67, %Nf_ObjUpdateRequired.exit ]
  %70 = zext nneg i32 %.lcssa.ph to i64
  br label %.critedge

.critedge:                                        ; preds = %.critedge.loopexit, %4
  %.lcssa = phi i64 [ 0, %4 ], [ %70, %.critedge.loopexit ]
  %71 = getelementptr inbounds nuw i8, ptr %9, i64 20
  %72 = load float, ptr %71, align 4, !tbaa !3
  %73 = getelementptr inbounds nuw i8, ptr %0, i64 16
  %74 = load ptr, ptr %73, align 8, !tbaa !103
  %75 = getelementptr inbounds nuw i8, ptr %74, i64 232
  %76 = load float, ptr %75, align 8, !tbaa !180
  %77 = fadd float %72, %76
  store float %77, ptr %75, align 8, !tbaa !180
  %78 = getelementptr inbounds nuw i8, ptr %74, i64 176
  %79 = load i64, ptr %78, align 8, !tbaa !183
  %80 = add i64 %79, %.lcssa
  store i64 %80, ptr %78, align 8, !tbaa !183
  %81 = getelementptr inbounds nuw i8, ptr %74, i64 168
  %82 = load i64, ptr %81, align 8, !tbaa !181
  %83 = add i64 %82, 1
  store i64 %83, ptr %81, align 8, !tbaa !181
  %84 = load i32, ptr %3, align 4
  %85 = or i32 %84, -2147483648
  store i32 %85, ptr %3, align 4
  ret void
}